target datalayout = "e-m:e-p270:32:32-p271:32:32-p272:64:64-i64:64-i128:128-f80:128-n8:16:32:64-S128"
target triple = "x86_64-pc-linux-gnu"

%struct._packet_info = type { ptr, ptr, i32, i32, %struct.nstime_t, %struct.nstime_t, %struct.nstime_t, i32, ptr, ptr, ptr, ptr, %struct._address, %struct._address, %struct._address, %struct._address, %struct._address, %struct._address, i32, ptr, i32, %struct.anon, i32, i32, i32, i32, ptr, i32, ptr, ptr, i16, i16, i32, i32, i16, i32, i32, ptr, ptr, ptr, i8, i8, i16, i16, i16, i32, i16, i16, ptr, ptr, ptr, ptr, ptr, i32 }
%struct.nstime_t = type { i64, i32 }
%struct._address = type { i32, i32, ptr, ptr }
%struct.anon = type { i8, [3 x i8] }

@hf_zbee_zdp_ext_addr = external global i32, align 4
@hf_zbee_zdp_number_of_children = external global i32, align 4
@.str.10 = private unnamed_addr constant [18 x i8] c", # children %d :\00", align 1
@.str.11 = private unnamed_addr constant [4 x i8] c" %s\00", align 1
@.str.12 = private unnamed_addr constant [8 x i8] c" %s ...\00", align 1
@.str.13 = private unnamed_addr constant [13 x i8] c", Status: %s\00", align 1

; Function Attrs: nounwind uwtable
define hidden void @dissect_zbee_zdp_rsp_parent_annce(ptr noundef %0, ptr noundef %1, ptr noundef %2) #0 {
  %4 = alloca ptr, align 8
  %5 = alloca ptr, align 8
  %6 = alloca ptr, align 8
  %7 = alloca i32, align 4
  %8 = alloca i32, align 4
  %9 = alloca i32, align 4
  %10 = alloca i64, align 8
  %11 = alloca i8, align 1
  store ptr %0, ptr %4, align 8
  store ptr %1, ptr %5, align 8
  store ptr %2, ptr %6, align 8
  store i32 0, ptr %7, align 4
  %12 = load ptr, ptr %6, align 8
  %13 = load ptr, ptr %4, align 8
  %14 = call zeroext i8 @zdp_parse_status(ptr noundef %12, ptr noundef %13, ptr noundef %7)
  store i8 %14, ptr %11, align 1
  %15 = load ptr, ptr %6, align 8
  %16 = load i32, ptr @hf_zbee_zdp_number_of_children, align 4
  %17 = load ptr, ptr %4, align 8
  %18 = load i32, ptr %7, align 4
  %19 = call ptr @proto_tree_add_item_ret_uint(ptr noundef %15, i32 noundef %16, ptr noundef %17, i32 noundef %18, i32 noundef 1, i32 noundef -2147483648, ptr noundef %8)
  %20 = load i32, ptr %7, align 4
  %21 = add i32 %20, 1
  store i32 %21, ptr %7, align 4
  %22 = load ptr, ptr %6, align 8
  %23 = load ptr, ptr %5, align 8
  %24 = load i8, ptr %11, align 1
  %25 = call ptr @zdp_status_name(i8 noundef zeroext %24)
  call void (ptr, ptr, ptr, ...) @zbee_append_info(ptr noundef %22, ptr noundef %23, ptr noundef @.str.13, ptr noundef %25)
  %26 = load ptr, ptr %6, align 8
  %27 = load ptr, ptr %5, align 8
  %28 = load i32, ptr %8, align 4
  call void (ptr, ptr, ptr, ...) @zbee_append_info(ptr noundef %26, ptr noundef %27, ptr noundef @.str.10, i32 noundef %28)
  store i32 0, ptr %9, align 4
  br label %29

29:                                               ; preds = %52, %3
  %30 = load i32, ptr %9, align 4
  %31 = load i32, ptr %8, align 4
  %32 = icmp ult i32 %30, %31
  br i1 %32, label %33, label %55

33:                                               ; preds = %29
  %34 = load ptr, ptr %6, align 8
  %35 = load i32, ptr @hf_zbee_zdp_ext_addr, align 4
  %36 = load ptr, ptr %4, align 8
  %37 = call i64 @zbee_parse_eui64(ptr noundef %34, i32 noundef %35, ptr noundef %36, ptr noundef %7, i32 noundef 8, ptr noundef null)
  store i64 %37, ptr %10, align 8
  %38 = load i32, ptr %9, align 4
  %39 = icmp eq i32 %38, 0
  br i1 %39, label %40, label %51

40:                                               ; preds = %33
  %41 = load ptr, ptr %6, align 8
  %42 = load ptr, ptr %5, align 8
  %43 = load i32, ptr %8, align 4
  %44 = icmp eq i32 %43, 1
  %45 = select i1 %44, ptr @.str.11, ptr @.str.12
  %46 = load ptr, ptr %5, align 8
  %47 = getelementptr inbounds %struct._packet_info, ptr %46, i32 0, i32 50
  %48 = load ptr, ptr %47, align 8
  %49 = load i64, ptr %10, align 8
  %50 = call ptr @eui64_to_display(ptr noundef %48, i64 noundef %49)
  call void (ptr, ptr, ptr, ...) @zbee_append_info(ptr noundef %41, ptr noundef %42, ptr noundef %45, ptr noundef %50)
  br label %51

51:                                               ; preds = %40, %33
  br label %52

52:                                               ; preds = %51
  %53 = load i32, ptr %9, align 4
  %54 = add i32 %53, 1
  store i32 %54, ptr %9, align 4
  br label %29, !llvm.loop !8

55:                                               ; preds = %29
  %56 = load ptr, ptr %4, align 8
  %57 = load i32, ptr %7, align 4
  %58 = load ptr, ptr %5, align 8
  %59 = load ptr, ptr %6, align 8
  call void @zdp_dump_excess(ptr noundef %56, i32 noundef %57, ptr noundef %58, ptr noundef %59)
  ret void
}