; Function Attrs: nounwind uwtable
define hidden void @dissect_zbee_zdp_rsp_parent_annce(ptr noundef %0, ptr noundef %1, ptr noundef %2) local_unnamed_addr #0 {
  %4 = alloca i32, align 4
  %5 = alloca i32, align 4
  store i32 0, ptr %4, align 4
  %6 = call zeroext i8 @zdp_parse_status(ptr noundef %2, ptr noundef %0, ptr noundef nonnull %4) #2
  %7 = load i32, ptr @hf_zbee_zdp_number_of_children, align 4
  %8 = load i32, ptr %4, align 4
  %9 = call ptr @proto_tree_add_item_ret_uint(ptr noundef %2, i32 noundef %7, ptr noundef %0, i32 noundef %8, i32 noundef 1, i32 noundef -2147483648, ptr noundef nonnull %5) #2
  %10 = load i32, ptr %4, align 4
  %11 = add i32 %10, 1
  store i32 %11, ptr %4, align 4
  %12 = call ptr @zdp_status_name(i8 noundef zeroext %6) #2
  call void (ptr, ptr, ptr, ...) @zbee_append_info(ptr noundef %2, ptr noundef %1, ptr noundef nonnull @.str.13, ptr noundef %12) #2
  %13 = load i32, ptr %5, align 4
  call void (ptr, ptr, ptr, ...) @zbee_append_info(ptr noundef %2, ptr noundef %1, ptr noundef nonnull @.str.10, i32 noundef %13) #2
  %14 = load i32, ptr %5, align 4
  %.not = icmp eq i32 %14, 0
  br i1 %.not, label %._crit_edge, label %.lr.ph

.lr.ph:                                           ; preds = %3
  %15 = getelementptr inbounds nuw i8, ptr %1, i64 408
  br label %16

16:                                               ; preds = %.lr.ph, %26
  %.020 = phi i32 [ 0, %.lr.ph ], [ %27, %26 ]
  %17 = load i32, ptr @hf_zbee_zdp_ext_addr, align 4
  %18 = call i64 @zbee_parse_eui64(ptr noundef %2, i32 noundef %17, ptr noundef %0, ptr noundef nonnull %4, i32 noundef 8, ptr noundef null) #2
  %19 = icmp eq i32 %.020, 0
  br i1 %19, label %20, label %26

20:                                               ; preds = %16
  %21 = load i32, ptr %5, align 4
  %22 = icmp eq i32 %21, 1
  %23 = select i1 %22, ptr @.str.11, ptr @.str.12
  %24 = load ptr, ptr %15, align 8
  %25 = call ptr @eui64_to_display(ptr noundef %24, i64 noundef %18) #2
  call void (ptr, ptr, ptr, ...) @zbee_append_info(ptr noundef %2, ptr noundef %1, ptr noundef nonnull %23, ptr noundef %25) #2
  br label %26

26:                                               ; preds = %16, %20
  %27 = add nuw i32 %.020, 1
  %28 = load i32, ptr %5, align 4
  %29 = icmp ult i32 %27, %28
  br i1 %29, label %16, label %._crit_edge, !llvm.loop !8

._crit_edge:                                      ; preds = %26, %3
  %30 = load i32, ptr %4, align 4
  call void @zdp_dump_excess(ptr noundef %0, i32 noundef %30, ptr noundef %1, ptr noundef %2) #2
  ret void
}